target datalayout = "e-m:e-p270:32:32-p271:32:32-p272:64:64-i64:64-i128:128-f80:128-n8:16:32:64-S128"
target triple = "x86_64-pc-linux-gnu"

; Function Attrs: inlinehint mustprogress nounwind uwtable
define internal noundef signext i8 @_ZL9U_FAILURE10UErrorCode(i32 noundef %0) #4 {
  %2 = alloca i32, align 4
  store i32 %0, ptr %2, align 4, !tbaa !40
  %3 = load i32, ptr %2, align 4, !tbaa !40
  %4 = icmp sgt i32 %3, 0
  %5 = zext i1 %4 to i8
  ret i8 %5
}

; Function Attrs: mustprogress uwtable
define i32 @uset_serialize_77(ptr noundef %0, ptr noundef %1, i32 noundef %2, ptr noundef %3) #0 {
  %5 = alloca i32, align 4
  %6 = alloca ptr, align 8
  %7 = alloca ptr, align 8
  %8 = alloca i32, align 4
  %9 = alloca ptr, align 8
  store ptr %0, ptr %6, align 8, !tbaa !7
  store ptr %1, ptr %7, align 8, !tbaa !47
  store i32 %2, ptr %8, align 4, !tbaa !3
  store ptr %3, ptr %9, align 8, !tbaa !39
  %10 = load ptr, ptr %9, align 8, !tbaa !39
  %11 = icmp eq ptr %10, null
  br i1 %11, label %17, label %12

12:                                               ; preds = %4
  %13 = load ptr, ptr %9, align 8, !tbaa !39
  %14 = load i32, ptr %13, align 4, !tbaa !40
  %15 = call noundef signext i8 @_ZL9U_FAILURE10UErrorCode(i32 noundef %14)
  %16 = icmp ne i8 %15, 0
  br i1 %16, label %17, label %18

17:                                               ; preds = %12, %4
  store i32 0, ptr %5, align 4
  br label %24

18:                                               ; preds = %12
  %19 = load ptr, ptr %6, align 8, !tbaa !7
  %20 = load ptr, ptr %7, align 8, !tbaa !47
  %21 = load i32, ptr %8, align 4, !tbaa !3
  %22 = load ptr, ptr %9, align 8, !tbaa !39
  %23 = call noundef i32 @_ZNK6icu_7710UnicodeSet9serializeEPtiR10UErrorCode(ptr noundef nonnull align 8 dereferenceable(200) %19, ptr noundef %20, i32 noundef %21, ptr noundef nonnull align 4 dereferenceable(4) %22)
  store i32 %23, ptr %5, align 4
  br label %24

24:                                               ; preds = %18, %17
  %25 = load i32, ptr %5, align 4
  ret i32 %25
}