; Function Attrs: mustprogress uwtable
define noundef i32 @uset_serialize_77(ptr noundef %0, ptr noundef %1, i32 noundef %2, ptr noundef %3) local_unnamed_addr #0 {
  %5 = icmp eq ptr %3, null
  br i1 %5, label %11, label %6

6:                                                ; preds = %4
  %7 = load i32, ptr %3, align 4, !tbaa !24
  %8 = icmp slt i32 %7, 1
  br i1 %8, label %9, label %11

9:                                                ; preds = %6
  %10 = tail call noundef i32 @_ZNK6icu_7710UnicodeSet9serializeEPtiR10UErrorCode(ptr noundef nonnull align 8 dereferenceable(200) %0, ptr noundef %1, i32 noundef %2, ptr noundef nonnull align 4 dereferenceable(4) %3)
  br label %11

11:                                               ; preds = %4, %6, %9
  %.0 = phi i32 [ %10, %9 ], [ 0, %6 ], [ 0, %4 ]
  ret i32 %.0
}